target datalayout = "e-m:e-p270:32:32-p271:32:32-p272:64:64-i64:64-i128:128-f80:128-n8:16:32:64-S128"
target triple = "x86_64-pc-linux-gnu"

; Function Attrs: nounwind uwtable
define hidden void @je_pages_unmark_guards(ptr noundef %0, ptr noundef %1) #0 {
  %3 = alloca ptr, align 8
  %4 = alloca ptr, align 8
  %5 = alloca i8, align 1
  %6 = alloca i64, align 8
  %7 = alloca i8, align 1
  store ptr %0, ptr %3, align 8, !tbaa !4
  store ptr %1, ptr %4, align 8, !tbaa !4
  br label %8

8:                                                ; preds = %2
  br label %9

9:                                                ; preds = %8
  br label %10

10:                                               ; preds = %9
  br label %11

11:                                               ; preds = %10
  call void @llvm.lifetime.start.p0(i64 1, ptr %5) #10
  %12 = load ptr, ptr %3, align 8, !tbaa !4
  %13 = icmp ne ptr %12, null
  br i1 %13, label %14, label %17

14:                                               ; preds = %11
  %15 = load ptr, ptr %4, align 8, !tbaa !4
  %16 = icmp ne ptr %15, null
  br label %17

17:                                               ; preds = %14, %11
  %18 = phi i1 [ false, %11 ], [ %16, %14 ]
  %19 = zext i1 %18 to i8
  store i8 %19, ptr %5, align 1, !tbaa !12
  call void @llvm.lifetime.start.p0(i64 8, ptr %6) #10
  %20 = load i8, ptr %5, align 1, !tbaa !12, !range !14, !noundef !15
  %21 = trunc i8 %20 to i1
  br i1 %21, label %22, label %29

22:                                               ; preds = %17
  %23 = load ptr, ptr %4, align 8, !tbaa !4
  %24 = ptrtoint ptr %23 to i64
  %25 = load ptr, ptr %3, align 8, !tbaa !4
  %26 = ptrtoint ptr %25 to i64
  %27 = sub i64 %24, %26
  %28 = add i64 %27, 4096
  br label %30

29:                                               ; preds = %17
  br label %30

30:                                               ; preds = %29, %22
  %31 = phi i64 [ %28, %22 ], [ -1, %29 ]
  store i64 %31, ptr %6, align 8, !tbaa !8
  call void @llvm.lifetime.start.p0(i64 1, ptr %7) #10
  %32 = load i8, ptr %5, align 1, !tbaa !12, !range !14, !noundef !15
  %33 = trunc i8 %32 to i1
  br i1 %33, label %34, label %37

34:                                               ; preds = %30
  %35 = load i64, ptr %6, align 8, !tbaa !8
  %36 = icmp ule i64 %35, 16384
  br label %37

37:                                               ; preds = %34, %30
  %38 = phi i1 [ false, %30 ], [ %36, %34 ]
  %39 = zext i1 %38 to i8
  store i8 %39, ptr %7, align 1, !tbaa !12
  %40 = load i8, ptr %7, align 1, !tbaa !12, !range !14, !noundef !15
  %41 = trunc i8 %40 to i1
  br i1 %41, label %42, label %46

42:                                               ; preds = %37
  %43 = load ptr, ptr %3, align 8, !tbaa !4
  %44 = load i64, ptr %6, align 8, !tbaa !8
  %45 = call i32 @mprotect(ptr noundef %43, i64 noundef %44, i32 noundef 3) #10
  br label %59

46:                                               ; preds = %37
  %47 = load ptr, ptr %3, align 8, !tbaa !4
  %48 = icmp ne ptr %47, null
  br i1 %48, label %49, label %52

49:                                               ; preds = %46
  %50 = load ptr, ptr %3, align 8, !tbaa !4
  %51 = call i32 @mprotect(ptr noundef %50, i64 noundef 4096, i32 noundef 3) #10
  br label %52

52:                                               ; preds = %49, %46
  %53 = load ptr, ptr %4, align 8, !tbaa !4
  %54 = icmp ne ptr %53, null
  br i1 %54, label %55, label %58

55:                                               ; preds = %52
  %56 = load ptr, ptr %4, align 8, !tbaa !4
  %57 = call i32 @mprotect(ptr noundef %56, i64 noundef 4096, i32 noundef 3) #10
  br label %58

58:                                               ; preds = %55, %52
  br label %59

59:                                               ; preds = %58, %42
  call void @llvm.lifetime.end.p0(i64 1, ptr %7) #10
  call void @llvm.lifetime.end.p0(i64 8, ptr %6) #10
  call void @llvm.lifetime.end.p0(i64 1, ptr %5) #10
  ret void
}