; Function Attrs: nounwind uwtable
define hidden void @je_pages_unmark_guards(ptr noundef %0, ptr noundef %1) local_unnamed_addr #0 {
  %3 = icmp ne ptr %0, null
  %4 = icmp ne ptr %1, null
  %5 = and i1 %3, %4
  %6 = ptrtoint ptr %1 to i64
  %7 = ptrtoint ptr %0 to i64
  %reass.sub = sub i64 %6, %7
  %8 = add i64 %reass.sub, 4096
  %9 = select i1 %5, i64 %8, i64 -1
  %10 = icmp ult i64 %9, 16385
  %11 = and i1 %5, %10
  br i1 %11, label %12, label %14

12:                                               ; preds = %2
  %13 = tail call i32 @mprotect(ptr noundef nonnull %0, i64 noundef %9, i32 noundef 3) #8
  br label %20

14:                                               ; preds = %2
  br i1 %3, label %15, label %17

15:                                               ; preds = %14
  %16 = tail call i32 @mprotect(ptr noundef nonnull %0, i64 noundef 4096, i32 noundef 3) #8
  br label %17

17:                                               ; preds = %15, %14
  br i1 %4, label %18, label %20

18:                                               ; preds = %17
  %19 = tail call i32 @mprotect(ptr noundef nonnull %1, i64 noundef 4096, i32 noundef 3) #8
  br label %20

20:                                               ; preds = %17, %18, %12
  ret void
}